; Function Attrs: nounwind uwtable
define hidden ptr @_PyObject_CallMethodFormat(ptr noundef %0, ptr noundef %1, ptr noundef %2, ...) local_unnamed_addr #0 {
  %4 = alloca [1 x %struct.__va_list_tag], align 16
  call void @llvm.lifetime.start.p0(i64 24, ptr nonnull %4) #10
  call void @llvm.va_start.p0(ptr nonnull %4)
  %5 = call i32 @PyCallable_Check(ptr noundef %1) #10
  %.not.i = icmp eq i32 %5, 0
  br i1 %.not.i, label %6, label %12

6:                                                ; preds = %3
  %7 = load ptr, ptr @PyExc_TypeError, align 8, !tbaa !23
  %8 = getelementptr i8, ptr %1, i64 8
  %.val.i = load ptr, ptr %8, align 8, !tbaa !20
  %9 = getelementptr inbounds nuw i8, ptr %.val.i, i64 24
  %10 = load ptr, ptr %9, align 8, !tbaa !26
  %11 = call ptr (ptr, ptr, ptr, ...) @_PyErr_Format(ptr noundef %0, ptr noundef %7, ptr noundef nonnull @.str.14, ptr noundef %10) #10
  br label %callmethod.exit

12:                                               ; preds = %3
  %13 = call fastcc ptr @_PyObject_CallFunctionVa(ptr noundef %0, ptr noundef %1, ptr noundef %2, ptr noundef nonnull %4)
  br label %callmethod.exit

callmethod.exit:                                  ; preds = %6, %12
  %.0.i = phi ptr [ %13, %12 ], [ null, %6 ]
  call void @llvm.va_end.p0(ptr nonnull %4)
  call void @llvm.lifetime.end.p0(i64 24, ptr nonnull %4) #10
  ret ptr %.0.i
}